; Function Attrs: mustprogress uwtable
define hidden void @_ZN5zxing15HybridBinarizer14getBlackMatrixERNS_12ErrorHandlerE(ptr dead_on_unwind noalias writable sret(%"class.zxing::Ref.0") align 8 %0, ptr noundef nonnull align 8 dereferenceable(228) %1, ptr noundef nonnull align 8 dereferenceable(48) %2) unnamed_addr #0 align 2 {
  %4 = getelementptr inbounds nuw i8, ptr %1, i64 56
  %5 = load ptr, ptr %4, align 8, !tbaa !70
  %.not = icmp eq ptr %5, null
  br i1 %.not, label %6, label %13

6:                                                ; preds = %3
  %7 = tail call noundef i32 @_ZN5zxing15HybridBinarizer15binarizeByBlockERNS_12ErrorHandlerE(ptr noundef nonnull align 8 dereferenceable(228) %1, ptr noundef nonnull align 8 dereferenceable(48) %2)
  %8 = load ptr, ptr %2, align 8, !tbaa !12
  %9 = getelementptr inbounds nuw i8, ptr %8, i64 16
  %10 = load ptr, ptr %9, align 8
  %11 = tail call noundef i32 %10(ptr noundef nonnull align 8 dereferenceable(48) %2)
  %.not4 = icmp eq i32 %11, 0
  br i1 %.not4, label %13, label %12

12:                                               ; preds = %6
  store ptr null, ptr %0, align 8, !tbaa !70
  br label %14

13:                                               ; preds = %6, %3
  tail call void @_ZN5zxing9Binarizer14getBlackMatrixERNS_12ErrorHandlerE(ptr dead_on_unwind writable sret(%"class.zxing::Ref.0") align 8 %0, ptr noundef nonnull align 8 dereferenceable(72) %1, ptr noundef nonnull align 8 dereferenceable(48) %2)
  br label %14

14:                                               ; preds = %13, %12
  ret void
}